Certificate:
    Data:
        Version: 3 (0x2)
        Serial Number: 1 (0x1)
    Signature Algorithm: sha1WithRSAEncryption
        Issuer: C=FR, ST=IDF, L=Paris, O=EON, CN=EON CA/emailAddress=support@eon.org
        Validity
            Not Before: Jun 14 15:12:33 2018 GMT
            Not After : Jun 14 15:12:33 2019 GMT
        Subject: C=FR, ST=IDF, L=Paris, O=EON, CN=geds/emailAddress=support@eon.org
        Subject Public Key Info:
            Public Key Algorithm: rsaEncryption
                Public-Key: (1024 bit)
                Modulus:
                    00:e6:f3:f4:ed:59:b6:74:3e:53:18:92:58:38:ed:
                    b8:1d:e2:71:32:94:a3:7e:57:1b:a6:b9:6e:00:44:
                    52:30:e9:33:cd:68:e8:3d:59:55:ee:c8:58:b1:ba:
                    f0:a1:39:b2:6a:e3:53:3a:ab:5e:64:05:37:5b:25:
                    e1:53:02:df:f6:38:97:87:28:d1:7e:d5:f3:d0:85:
                    5a:6f:8a:b8:fe:62:55:54:c0:b3:78:58:af:2a:8d:
                    97:9a:da:9f:e6:0d:98:25:a7:e0:8c:9b:aa:30:19:
                    39:5e:5e:25:86:2a:83:c7:33:48:a9:c9:0b:a6:32:
                    50:f8:af:1c:25:97:68:e5:a3
                Exponent: 65537 (0x10001)
        X509v3 extensions:
            X509v3 Basic Constraints: 
                CA:FALSE
            Netscape Cert Type: 
                SSL Server
            Netscape Comment: 
                Easy-RSA Generated Server Certificate
            X509v3 Subject Key Identifier: 
                DC:A8:1B:5C:99:68:F7:4F:E1:4B:4D:8D:30:A1:19:6D:6B:E1:F6:46
            X509v3 Authority Key Identifier: 
                keyid:BC:0C:8E:CC:1A:A2:3E:B1:FD:15:05:E7:34:AB:31:0C:14:91:D7:53
                DirName:/C=FR/ST=IDF/L=Paris/O=EON/CN=EON CA/emailAddress=support@eon.org
                serial:BE:2D:DC:6A:FF:0A:AC:28

            X509v3 Extended Key Usage: 
                TLS Web Server Authentication
            X509v3 Key Usage: 
                Digital Signature, Key Encipherment
    Signature Algorithm: sha1WithRSAEncryption
         82:02:5c:a4:71:24:ac:59:30:14:bb:63:99:22:74:ec:d0:db:
         c5:70:2c:2c:74:cd:fa:3d:a7:6d:d2:5d:d0:19:00:43:d9:49:
         b9:e6:1d:c8:2f:f4:ac:37:fd:39:60:73:55:ec:79:69:b1:e6:
         0b:d8:50:27:ba:5b:da:9f:20:50:86:09:ee:5a:ef:e1:a8:33:
         d7:0b:69:6f:96:a6:b1:a2:59:36:23:70:a8:a7:da:84:7e:25:
         62:83:46:a6:27:04:5d:b2:09:01:ca:b4:fd:ea:15:9c:7a:d3:
         8d:42:98:d5:14:b2:4e:70:6b:d0:70:f7:04:eb:a6:4b:6f:9c:
         72:b9
-----BEGIN CERTIFICATE-----
MIIDgjCCAuugAwIBAgIBATANBgkqhkiG9w0BAQUFADBqMQswCQYDVQQGEwJGUjEM
MAoGA1UECBMDSURGMQ4wDAYDVQQHEwVQYXJpczEMMAoGA1UEChMDRU9OMQ8wDQYD
VQQDEwZFT04gQ0ExHjAcBgkqhkiG9w0BCQEWD3N1cHBvcnRAZW9uLm9yZzAeFw0x
ODA2MTQxNTEyMzNaFw0xOTA2MTQxNTEyMzNaMGgxCzAJBgNVBAYTAkZSMQwwCgYD
VQQIEwNJREYxDjAMBgNVBAcTBVBhcmlzMQwwCgYDVQQKEwNFT04xDTALBgNVBAMT
BGdlZHMxHjAcBgkqhkiG9w0BCQEWD3N1cHBvcnRAZW9uLm9yZzCBnzANBgkqhkiG
9w0BAQEFAAOBjQAwgYkCgYEA5vP07Vm2dD5TGJJYOO24HeJxMpSjflcbprluAERS
MOkzzWjoPVlV7shYsbrwoTmyauNTOqteZAU3WyXhUwLf9jiXhyjRftXz0IVab4q4
/mJVVMCzeFivKo2Xmtqf5g2YJafgjJuqMBk5Xl4lhiqDxzNIqckLpjJQ+K8cJZdo
5aMCAwEAAaOCATgwggE0MAkGA1UdEwQCMAAwEQYJYIZIAYb4QgEBBAQDAgZAMDQG
CWCGSAGG+EIBDQQnFiVFYXN5LVJTQSBHZW5lcmF0ZWQgU2VydmVyIENlcnRpZmlj
YXRlMB0GA1UdDgQWBBTcqBtcmWj3T+FLTY0woRlta+H2RjCBnAYDVR0jBIGUMIGR
gBS8DI7MGqI+sf0VBec0qzEMFJHXU6FupGwwajELMAkGA1UEBhMCRlIxDDAKBgNV
BAgTA0lERjEOMAwGA1UEBxMFUGFyaXMxDDAKBgNVBAoTA0VPTjEPMA0GA1UEAxMG
RU9OIENBMR4wHAYJKoZIhvcNAQkBFg9zdXBwb3J0QGVvbi5vcmeCCQC+Ldxq/wqs
KDATBgNVHSUEDDAKBggrBgEFBQcDATALBgNVHQ8EBAMCBaAwDQYJKoZIhvcNAQEF
BQADgYEAggJcpHEkrFkwFLtjmSJ07NDbxXAsLHTN+j2nbdJd0BkAQ9lJueYdyC/0
rDf9OWBzVex5abHmC9hQJ7pb2p8gUIYJ7lrv4agz1wtpb5amsaJZNiNwqKfahH4l
YoNGpicEXbIJAcq0/eoVnHrTjUKY1RSyTnBr0HD3BOumS2+ccrk=
-----END CERTIFICATE-----
